; Function Attrs: mustprogress uwtable
define dso_local noundef zeroext i1 @_ZNK15StatementAssign28has_uncertain_call_recursiveEv(ptr nocapture noundef nonnull readonly align 8 dereferenceable(136) %0) unnamed_addr #4 align 2 {
  %2 = getelementptr inbounds i8, ptr %0, i64 48
  %3 = load ptr, ptr %2, align 8
  %4 = load ptr, ptr %3, align 8
  %5 = getelementptr inbounds i8, ptr %4, i64 88
  %6 = load ptr, ptr %5, align 8
  %7 = tail call noundef zeroext i1 %6(ptr noundef nonnull align 8 dereferenceable(24) %3)
  ret i1 %7
}